; Function Attrs: mustprogress uwtable
define noundef i64 @_ZN5arrow8internal13GetRandomSeedEv() local_unnamed_addr #3 personality ptr @__gxx_personality_v0 {
  %1 = load atomic i8, ptr @_ZGVZN5arrow8internal13GetRandomSeedEvE8seed_gen acquire, align 8
  %2 = icmp eq i8 %1, 0
  br i1 %2, label %3, label %7, !prof !455

3:                                                ; preds = %0
  %4 = tail call i32 @__cxa_guard_acquire(ptr nonnull @_ZGVZN5arrow8internal13GetRandomSeedEvE8seed_gen) #38
  %.not = icmp eq i32 %4, 0
  br i1 %.not, label %7, label %5

5:                                                ; preds = %3
  invoke fastcc void @_ZN5arrow8internal12_GLOBAL__N_116GetSeedGeneratorEv()
          to label %6 unwind label %13

6:                                                ; preds = %5
  tail call void @__cxa_guard_release(ptr nonnull @_ZGVZN5arrow8internal13GetRandomSeedEvE8seed_gen) #38
  br label %7

7:                                                ; preds = %6, %3, %0
  %8 = tail call noundef i32 @pthread_mutex_lock(ptr noundef nonnull align 8 dereferenceable(40) @_ZZN5arrow8internal13GetRandomSeedEvE14seed_gen_mutex) #38
  %.not.i.i = icmp eq i32 %8, 0
  br i1 %.not.i.i, label %_ZNSt10lock_guardISt5mutexEC2ERS0_.exit, label %9

9:                                                ; preds = %7
  tail call void @_ZSt20__throw_system_errori(i32 noundef %8) #39
  unreachable

_ZNSt10lock_guardISt5mutexEC2ERS0_.exit:          ; preds = %7
  %10 = invoke noundef i64 @_ZNSt23mersenne_twister_engineImLm64ELm312ELm156ELm31ELm13043109905998158313ELm29ELm6148914691236517205ELm17ELm8202884508482404352ELm37ELm18444473444759240704ELm43ELm6364136223846793005EEclEv(ptr noundef nonnull align 8 dereferenceable(2504) @_ZZN5arrow8internal13GetRandomSeedEvE8seed_gen)
          to label %11 unwind label %15

11:                                               ; preds = %_ZNSt10lock_guardISt5mutexEC2ERS0_.exit
  %12 = tail call noundef i32 @pthread_mutex_unlock(ptr noundef nonnull align 8 dereferenceable(40) @_ZZN5arrow8internal13GetRandomSeedEvE14seed_gen_mutex) #38
  ret i64 %10

13:                                               ; preds = %5
  %14 = landingpad { ptr, i32 }
          cleanup
  tail call void @__cxa_guard_abort(ptr nonnull @_ZGVZN5arrow8internal13GetRandomSeedEvE8seed_gen) #38
  br label %18

15:                                               ; preds = %_ZNSt10lock_guardISt5mutexEC2ERS0_.exit
  %16 = landingpad { ptr, i32 }
          cleanup
  %17 = tail call noundef i32 @pthread_mutex_unlock(ptr noundef nonnull align 8 dereferenceable(40) @_ZZN5arrow8internal13GetRandomSeedEvE14seed_gen_mutex) #38
  br label %18

18:                                               ; preds = %15, %13
  %.pn = phi { ptr, i32 } [ %16, %15 ], [ %14, %13 ]
  resume { ptr, i32 } %.pn
}